; Function Attrs: mustprogress noreturn uwtable
define hidden void @_ZN4cvc58internal6theory2fp7rewrite4typeENS0_12NodeTemplateILb0EEEb(ptr noalias nocapture readnone sret(%"struct.cvc5::internal::theory::RewriteResponse") align 8 %agg.result, ptr nocapture noundef readonly %node, i1 zeroext %isPreRewrite) #3 personality ptr @__gxx_personality_v0 {
entry:
  %ref.tmp = alloca %"class.cvc5::internal::FatalStream", align 1
  call void @_ZN4cvc58internal11FatalStreamC1EPKcS3_i(ptr noundef nonnull align 1 dereferenceable(1) %ref.tmp, ptr noundef nonnull @__PRETTY_FUNCTION__._ZN4cvc58internal6theory2fp7rewrite4typeENS0_12NodeTemplateILb0EEEb, ptr noundef nonnull @.str, i32 noundef 79)
  %call = invoke noundef nonnull align 8 dereferenceable(8) ptr @_ZN4cvc58internal11FatalStream6streamEv(ptr noundef nonnull align 1 dereferenceable(1) %ref.tmp)
          to label %invoke.cont unwind label %lpad

invoke.cont:                                      ; preds = %entry
  %call2 = invoke noundef nonnull align 8 dereferenceable(8) ptr @_ZStlsISt11char_traitsIcEERSt13basic_ostreamIcT_ES5_PKc(ptr noundef nonnull align 8 dereferenceable(8) %call, ptr noundef nonnull @.str.1)
          to label %invoke.cont1 unwind label %lpad

invoke.cont1:                                     ; preds = %invoke.cont
  %call4 = invoke noundef nonnull align 8 dereferenceable(8) ptr @_ZStlsISt11char_traitsIcEERSt13basic_ostreamIcT_ES5_PKc(ptr noundef nonnull align 8 dereferenceable(8) %call2, ptr noundef nonnull @.str.4)
          to label %invoke.cont5 unwind label %lpad

invoke.cont5:                                     ; preds = %invoke.cont1
  %0 = load ptr, ptr %node, align 8
  %d_kind.i = getelementptr inbounds i8, ptr %0, i64 8
  %bf.load.i = load i16, ptr %d_kind.i, align 8
  %bf.clear.i = and i16 %bf.load.i, 1023
  %bf.cast.i = zext nneg i16 %bf.clear.i to i32
  %call8 = invoke noundef nonnull align 8 dereferenceable(8) ptr @_ZN4cvc58internal4kindlsERSoNS1_6Kind_tE(ptr noundef nonnull align 8 dereferenceable(8) %call4, i32 noundef %bf.cast.i)
          to label %invoke.cont7 unwind label %lpad

invoke.cont7:                                     ; preds = %invoke.cont5
  %call10 = invoke noundef nonnull align 8 dereferenceable(8) ptr @_ZStlsISt11char_traitsIcEERSt13basic_ostreamIcT_ES5_PKc(ptr noundef nonnull align 8 dereferenceable(8) %call8, ptr noundef nonnull @.str.5)
          to label %invoke.cont9 unwind label %lpad

invoke.cont9:                                     ; preds = %invoke.cont7
  call void @_ZN4cvc58internal11FatalStreamD1Ev(ptr noundef nonnull align 1 dereferenceable(1) %ref.tmp) #15
  unreachable

lpad:                                             ; preds = %invoke.cont7, %invoke.cont5, %invoke.cont1, %invoke.cont, %entry
  %1 = landingpad { ptr, i32 }
          cleanup
  call void @_ZN4cvc58internal11FatalStreamD1Ev(ptr noundef nonnull align 1 dereferenceable(1) %ref.tmp) #15
  unreachable
}